target datalayout = "e-m:e-p270:32:32-p271:32:32-p272:64:64-i64:64-i128:128-f80:128-n8:16:32:64-S128"
target triple = "x86_64-pc-linux-gnu"

%union.ListCell = type { ptr }
%struct.List = type { i32, i32, i32, ptr, [0 x %union.ListCell] }
%struct.Expr = type { i32 }
%struct.OpExpr = type { %struct.Expr, i32, i32, i32, i8, i32, i32, ptr, i32 }
%struct.FormData_pg_operator = type { i32, %struct.nameData, i32, i32, i8, i8, i8, i32, i32, i32, i32, i32, i32, i32, i32 }
%struct.nameData = type { [64 x i8] }
%struct.HeapTupleData = type { i32, %struct.ItemPointerData, i32, ptr }
%struct.ItemPointerData = type { %struct.BlockIdData, i16 }
%struct.BlockIdData = type { i16, i16 }
%struct.HeapTupleHeaderData = type { %union.anon, %struct.ItemPointerData, i16, i16, i8, [0 x i8] }
%union.anon = type { %struct.HeapTupleFields }
%struct.HeapTupleFields = type { i32, i32, %union.anon.0 }
%union.anon.0 = type { i32 }

@.str.1 = private unnamed_addr constant [12 x i8] c"subselect.c\00", align 1
@.str.10 = private unnamed_addr constant [36 x i8] c"cache lookup failed for operator %u\00", align 1
@__func__.hash_ok_operator = private unnamed_addr constant [17 x i8] c"hash_ok_operator\00", align 1

; Function Attrs: inlinehint nounwind uwtable
define internal ptr @GETSTRUCT(ptr noundef %0) #5 {
  %2 = alloca ptr, align 8
  store ptr %0, ptr %2, align 8
  %3 = load ptr, ptr %2, align 8
  %4 = getelementptr inbounds nuw %struct.HeapTupleData, ptr %3, i32 0, i32 3
  %5 = load ptr, ptr %4, align 8
  %6 = load ptr, ptr %2, align 8
  %7 = getelementptr inbounds nuw %struct.HeapTupleData, ptr %6, i32 0, i32 3
  %8 = load ptr, ptr %7, align 8
  %9 = getelementptr inbounds nuw %struct.HeapTupleHeaderData, ptr %8, i32 0, i32 4
  %10 = load i8, ptr %9, align 2
  %11 = zext i8 %10 to i32
  %12 = sext i32 %11 to i64
  %13 = getelementptr inbounds i8, ptr %5, i64 %12
  ret ptr %13
}

; Function Attrs: inlinehint nounwind uwtable
define internal i64 @ObjectIdGetDatum(i32 noundef %0) #5 {
  %2 = alloca i32, align 4
  store i32 %0, ptr %2, align 4
  %3 = load i32, ptr %2, align 4
  %4 = zext i32 %3 to i64
  ret i64 %4
}

; Function Attrs: inlinehint nounwind uwtable
define internal ptr @list_nth_cell(ptr noundef %0, i32 noundef %1) #5 {
  %3 = alloca ptr, align 8
  %4 = alloca i32, align 4
  store ptr %0, ptr %3, align 8
  store i32 %1, ptr %4, align 4
  %5 = load ptr, ptr %3, align 8
  %6 = getelementptr inbounds nuw %struct.List, ptr %5, i32 0, i32 3
  %7 = load ptr, ptr %6, align 8
  %8 = load i32, ptr %4, align 4
  %9 = sext i32 %8 to i64
  %10 = getelementptr inbounds %union.ListCell, ptr %7, i64 %9
  ret ptr %10
}

; Function Attrs: inlinehint nounwind uwtable
define internal i32 @list_length(ptr noundef %0) #5 {
  %2 = alloca ptr, align 8
  store ptr %0, ptr %2, align 8
  %3 = load ptr, ptr %2, align 8
  %4 = icmp ne ptr %3, null
  br i1 %4, label %5, label %9

5:                                                ; preds = %1
  %6 = load ptr, ptr %2, align 8
  %7 = getelementptr inbounds nuw %struct.List, ptr %6, i32 0, i32 1
  %8 = load i32, ptr %7, align 4
  br label %10

9:                                                ; preds = %1
  br label %10

10:                                               ; preds = %9, %5
  %11 = phi i32 [ %8, %5 ], [ 0, %9 ]
  ret i32 %11
}

; Function Attrs: nounwind uwtable
define internal zeroext i1 @hash_ok_operator(ptr noundef %0) #0 {
  %2 = alloca i1, align 1
  %3 = alloca ptr, align 8
  %4 = alloca i32, align 4
  %5 = alloca i32, align 4
  %6 = alloca ptr, align 8
  %7 = alloca ptr, align 8
  %8 = alloca ptr, align 8
  store ptr %0, ptr %3, align 8
  call void @llvm.lifetime.start.p0(i64 4, ptr %4) #8
  %9 = load ptr, ptr %3, align 8
  %10 = getelementptr inbounds nuw %struct.OpExpr, ptr %9, i32 0, i32 1
  %11 = load i32, ptr %10, align 4
  store i32 %11, ptr %4, align 4
  %12 = load ptr, ptr %3, align 8
  %13 = getelementptr inbounds nuw %struct.OpExpr, ptr %12, i32 0, i32 7
  %14 = load ptr, ptr %13, align 8
  %15 = call i32 @list_length(ptr noundef %14)
  %16 = icmp ne i32 %15, 2
  br i1 %16, label %17, label %18

17:                                               ; preds = %1
  store i1 false, ptr %2, align 1
  store i32 1, ptr %5, align 4
  br label %69

18:                                               ; preds = %1
  %19 = load i32, ptr %4, align 4
  %20 = icmp eq i32 %19, 1070
  br i1 %20, label %24, label %21

21:                                               ; preds = %18
  %22 = load i32, ptr %4, align 4
  %23 = icmp eq i32 %22, 2988
  br i1 %23, label %24, label %34

24:                                               ; preds = %21, %18
  call void @llvm.lifetime.start.p0(i64 8, ptr %6) #8
  %25 = load ptr, ptr %3, align 8
  %26 = getelementptr inbounds nuw %struct.OpExpr, ptr %25, i32 0, i32 7
  %27 = load ptr, ptr %26, align 8
  %28 = call ptr @list_nth_cell(ptr noundef %27, i32 noundef 0)
  %29 = load ptr, ptr %28, align 8
  store ptr %29, ptr %6, align 8
  %30 = load i32, ptr %4, align 4
  %31 = load ptr, ptr %6, align 8
  %32 = call i32 @exprType(ptr noundef %31)
  %33 = call zeroext i1 @op_hashjoinable(i32 noundef %30, i32 noundef %32)
  store i1 %33, ptr %2, align 1
  store i32 1, ptr %5, align 4
  call void @llvm.lifetime.end.p0(i64 8, ptr %6) #8
  br label %69

34:                                               ; preds = %21
  call void @llvm.lifetime.start.p0(i64 8, ptr %7) #8
  call void @llvm.lifetime.start.p0(i64 8, ptr %8) #8
  %35 = load i32, ptr %4, align 4
  %36 = call i64 @ObjectIdGetDatum(i32 noundef %35)
  %37 = call ptr @SearchSysCache1(i32 noundef 40, i64 noundef %36)
  store ptr %37, ptr %7, align 8
  %38 = load ptr, ptr %7, align 8
  %39 = icmp ne ptr %38, null
  br i1 %39, label %52, label %40

40:                                               ; preds = %34
  br label %41

41:                                               ; preds = %40
  br i1 true, label %42, label %44

42:                                               ; preds = %41
  %43 = call zeroext i1 @errstart_cold(i32 noundef 21, ptr noundef null) #9
  br i1 %43, label %46, label %49

44:                                               ; preds = %41
  %45 = call zeroext i1 @errstart(i32 noundef 21, ptr noundef null)
  br i1 %45, label %46, label %49

46:                                               ; preds = %44, %42
  %47 = load i32, ptr %4, align 4
  %48 = call i32 (ptr, ...) @errmsg_internal(ptr noundef @.str.10, i32 noundef %47)
  call void @errfinish(ptr noundef @.str.1, i32 noundef 855, ptr noundef @__func__.hash_ok_operator)
  br label %49

49:                                               ; preds = %46, %44, %42
  unreachable

50:                                               ; No predecessors!
  br label %51

51:                                               ; preds = %50
  br label %52

52:                                               ; preds = %51, %34
  %53 = load ptr, ptr %7, align 8
  %54 = call ptr @GETSTRUCT(ptr noundef %53)
  store ptr %54, ptr %8, align 8
  %55 = load ptr, ptr %8, align 8
  %56 = getelementptr inbounds nuw %struct.FormData_pg_operator, ptr %55, i32 0, i32 6
  %57 = load i8, ptr %56, align 2, !range !4, !noundef !5
  %58 = trunc i8 %57 to i1
  br i1 %58, label %59, label %64

59:                                               ; preds = %52
  %60 = load ptr, ptr %8, align 8
  %61 = getelementptr inbounds nuw %struct.FormData_pg_operator, ptr %60, i32 0, i32 12
  %62 = load i32, ptr %61, align 4
  %63 = call zeroext i1 @func_strict(i32 noundef %62)
  br i1 %63, label %66, label %64

64:                                               ; preds = %59, %52
  %65 = load ptr, ptr %7, align 8
  call void @ReleaseSysCache(ptr noundef %65)
  store i1 false, ptr %2, align 1
  store i32 1, ptr %5, align 4
  br label %68

66:                                               ; preds = %59
  %67 = load ptr, ptr %7, align 8
  call void @ReleaseSysCache(ptr noundef %67)
  store i1 true, ptr %2, align 1
  store i32 1, ptr %5, align 4
  br label %68

68:                                               ; preds = %66, %64
  call void @llvm.lifetime.end.p0(i64 8, ptr %8) #8
  call void @llvm.lifetime.end.p0(i64 8, ptr %7) #8
  br label %69

69:                                               ; preds = %68, %24, %17
  call void @llvm.lifetime.end.p0(i64 4, ptr %4) #8
  %70 = load i1, ptr %2, align 1
  ret i1 %70
}