; Function Attrs: nounwind uwtable
define internal fastcc zeroext i1 @hash_ok_operator(i32 %.4.val, ptr readonly captures(address_is_null) %.32.val) unnamed_addr #0 {
  %.not.i = icmp eq ptr %.32.val, null
  br i1 %.not.i, label %list_length.exit.thread, label %list_length.exit

list_length.exit:                                 ; preds = %0
  %1 = getelementptr inbounds nuw i8, ptr %.32.val, i64 4
  %2 = load i32, ptr %1, align 4
  %.not = icmp eq i32 %2, 2
  br i1 %.not, label %3, label %list_length.exit.thread

3:                                                ; preds = %list_length.exit
  switch i32 %.4.val, label %9 [
    i32 2988, label %4
    i32 1070, label %4
  ]

4:                                                ; preds = %3, %3
  %5 = getelementptr i8, ptr %.32.val, i64 16
  %.val = load ptr, ptr %5, align 8
  %6 = load ptr, ptr %.val, align 8
  %7 = tail call i32 @exprType(ptr noundef %6) #10
  %8 = tail call zeroext i1 @op_hashjoinable(i32 noundef %.4.val, i32 noundef %7) #10
  br label %list_length.exit.thread

9:                                                ; preds = %3
  %10 = zext i32 %.4.val to i64
  %11 = tail call ptr @SearchSysCache1(i32 noundef 40, i64 noundef %10) #10
  %.not18 = icmp eq ptr %11, null
  br i1 %.not18, label %12, label %15

12:                                               ; preds = %9
  %13 = tail call zeroext i1 @errstart_cold(i32 noundef 21, ptr noundef null) #11
  tail call void @llvm.assume(i1 %13)
  %14 = tail call i32 (ptr, ...) @errmsg_internal(ptr noundef nonnull @.str.10, i32 noundef %.4.val) #10
  tail call void @errfinish(ptr noundef nonnull @.str.1, i32 noundef 855, ptr noundef nonnull @__func__.hash_ok_operator) #10
  unreachable

15:                                               ; preds = %9
  %16 = getelementptr i8, ptr %11, i64 16
  %.val19 = load ptr, ptr %16, align 8
  %17 = getelementptr inbounds nuw i8, ptr %.val19, i64 22
  %18 = load i8, ptr %17, align 2
  %19 = zext i8 %18 to i64
  %20 = getelementptr inbounds nuw i8, ptr %.val19, i64 %19
  %21 = getelementptr inbounds nuw i8, ptr %20, i64 78
  %22 = load i8, ptr %21, align 2, !range !4, !noundef !5
  %23 = trunc nuw i8 %22 to i1
  br i1 %23, label %24, label %28

24:                                               ; preds = %15
  %25 = getelementptr inbounds nuw i8, ptr %20, i64 100
  %26 = load i32, ptr %25, align 4
  %27 = tail call zeroext i1 @func_strict(i32 noundef %26) #10
  br i1 %27, label %29, label %28

28:                                               ; preds = %24, %15
  tail call void @ReleaseSysCache(ptr noundef nonnull %11) #10
  br label %list_length.exit.thread

29:                                               ; preds = %24
  tail call void @ReleaseSysCache(ptr noundef nonnull %11) #10
  br label %list_length.exit.thread

list_length.exit.thread:                          ; preds = %0, %28, %29, %list_length.exit, %4
  %.0 = phi i1 [ %8, %4 ], [ false, %list_length.exit ], [ true, %29 ], [ false, %28 ], [ false, %0 ]
  ret i1 %.0
}